; ModuleID = 'source-C-CXX/39/2897.c'
source_filename = "source-C-CXX/39/2897.c"
target datalayout = "e-m:e-p270:32:32-p271:32:32-p272:64:64-i64:64-f80:128-n8:16:32:64-S128"
target triple = "x86_64-pc-linux-gnu"

@.str = private unnamed_addr constant [16 x i8] c"%lf%lf%lf%lf%lf\00", align 1
@.str.1 = private unnamed_addr constant [14 x i8] c"Invalid input\00", align 1
@.str.2 = private unnamed_addr constant [6 x i8] c"%.4lf\00", align 1

; Function Attrs: nofree nounwind sspstrong uwtable
define dso_local void @main() local_unnamed_addr #0 {
  %1 = alloca double, align 8
  %2 = alloca double, align 8
  %3 = alloca double, align 8
  %4 = alloca double, align 8
  %5 = alloca double, align 8
  %6 = bitcast double* %1 to i8*
  call void @llvm.lifetime.start.p0i8(i64 8, i8* nonnull %6) #4
  %7 = bitcast double* %2 to i8*
  call void @llvm.lifetime.start.p0i8(i64 8, i8* nonnull %7) #4
  %8 = bitcast double* %3 to i8*
  call void @llvm.lifetime.start.p0i8(i64 8, i8* nonnull %8) #4
  %9 = bitcast double* %4 to i8*
  call void @llvm.lifetime.start.p0i8(i64 8, i8* nonnull %9) #4
  %10 = bitcast double* %5 to i8*
  call void @llvm.lifetime.start.p0i8(i64 8, i8* nonnull %10) #4
  %11 = call i32 (i8*, ...) @__isoc99_scanf(i8* getelementptr inbounds ([16 x i8], [16 x i8]* @.str, i64 0, i64 0), double* nonnull %1, double* nonnull %2, double* nonnull %3, double* nonnull %4, double* nonnull %5)
  %12 = load double, double* %1, align 8, !tbaa !5
  %13 = load double, double* %2, align 8, !tbaa !5
  %14 = load double, double* %3, align 8, !tbaa !5
  %15 = load double, double* %4, align 8, !tbaa !5
  %16 = load double, double* %5, align 8, !tbaa !5
  %17 = fdiv double %16, 3.600000e+02
  %18 = fmul double %17, 1.000000e+02
  %19 = fadd double %12, %13
  %20 = fadd double %19, %15
  %21 = fadd double %14, %20
  %22 = fmul double %21, 5.000000e-01
  %23 = fsub double %22, %12
  %24 = fsub double %22, %13
  %25 = fmul double %23, %24
  %26 = fsub double %22, %14
  %27 = fmul double %26, %25
  %28 = fsub double %22, %15
  %29 = fmul double %28, %27
  %30 = fmul double %12, %13
  %31 = fmul double %30, %14
  %32 = fmul double %31, %15
  %33 = call double @cos(double %18) #4
  %34 = fmul double %32, %33
  %35 = call double @cos(double %18) #4
  %36 = fmul double %34, %35
  %37 = fsub double %29, %36
  %38 = fcmp olt double %37, 0.000000e+00
  br i1 %38, label %39, label %41

39:                                               ; preds = %0
  %40 = call i32 (i8*, ...) @printf(i8* nonnull dereferenceable(1) getelementptr inbounds ([14 x i8], [14 x i8]* @.str.1, i64 0, i64 0)) #4
  br label %44

41:                                               ; preds = %0
  %42 = call double @sqrt(double %37) #4
  %43 = call i32 (i8*, ...) @printf(i8* nonnull dereferenceable(1) getelementptr inbounds ([6 x i8], [6 x i8]* @.str.2, i64 0, i64 0), double %42) #4
  br label %44

44:                                               ; preds = %39, %41
  call void @llvm.lifetime.end.p0i8(i64 8, i8* nonnull %10) #4
  call void @llvm.lifetime.end.p0i8(i64 8, i8* nonnull %9) #4
  call void @llvm.lifetime.end.p0i8(i64 8, i8* nonnull %8) #4
  call void @llvm.lifetime.end.p0i8(i64 8, i8* nonnull %7) #4
  call void @llvm.lifetime.end.p0i8(i64 8, i8* nonnull %6) #4
  ret void
}

; Function Attrs: argmemonly mustprogress nofree nosync nounwind willreturn
declare void @llvm.lifetime.start.p0i8(i64 immarg, i8* nocapture) #1

; Function Attrs: nofree nounwind
declare noundef i32 @__isoc99_scanf(i8* nocapture noundef readonly, ...) local_unnamed_addr #2

; Function Attrs: nofree nounwind sspstrong uwtable
define dso_local double @area(double %0, double %1, double %2, double %3, double %4) local_unnamed_addr #0 {
  %6 = fdiv double %4, 3.600000e+02
  %7 = fmul double %6, 1.000000e+02
  %8 = fadd double %0, %1
  %9 = fadd double %8, %3
  %10 = fadd double %9, %2
  %11 = fmul double %10, 5.000000e-01
  %12 = fsub double %11, %0
  %13 = fsub double %11, %1
  %14 = fmul double %12, %13
  %15 = fsub double %11, %2
  %16 = fmul double %15, %14
  %17 = fsub double %11, %3
  %18 = fmul double %17, %16
  %19 = fmul double %0, %1
  %20 = fmul double %19, %2
  %21 = fmul double %20, %3
  %22 = tail call double @cos(double %7) #4
  %23 = fmul double %21, %22
  %24 = tail call double @cos(double %7) #4
  %25 = fmul double %23, %24
  %26 = fsub double %18, %25
  %27 = fcmp olt double %26, 0.000000e+00
  br i1 %27, label %28, label %30

28:                                               ; preds = %5
  %29 = tail call i32 (i8*, ...) @printf(i8* nonnull dereferenceable(1) getelementptr inbounds ([14 x i8], [14 x i8]* @.str.1, i64 0, i64 0))
  br label %33

30:                                               ; preds = %5
  %31 = tail call double @sqrt(double %26) #4
  %32 = tail call i32 (i8*, ...) @printf(i8* nonnull dereferenceable(1) getelementptr inbounds ([6 x i8], [6 x i8]* @.str.2, i64 0, i64 0), double %31)
  br label %33

33:                                               ; preds = %30, %28
  ret double 0.000000e+00
}

; Function Attrs: argmemonly mustprogress nofree nosync nounwind willreturn
declare void @llvm.lifetime.end.p0i8(i64 immarg, i8* nocapture) #1

; Function Attrs: mustprogress nofree nounwind willreturn
declare double @cos(double) local_unnamed_addr #3

; Function Attrs: nofree nounwind
declare noundef i32 @printf(i8* nocapture noundef readonly, ...) local_unnamed_addr #2

; Function Attrs: mustprogress nofree nounwind willreturn
declare double @sqrt(double) local_unnamed_addr #3


!llvm.module.flags = !{!0, !1, !2, !3}
!llvm.ident = !{!4}

!0 = !{i32 1, !"wchar_size", i32 4}
!1 = !{i32 7, !"PIC Level", i32 2}
!2 = !{i32 7, !"PIE Level", i32 2}
!3 = !{i32 7, !"uwtable", i32 1}
!4 = !{!"clang version 13.0.0"}
!5 = !{!6, !6, i64 0}
!6 = !{!"double", !7, i64 0}
!7 = !{!"omnipotent char", !8, i64 0}
!8 = !{!"Simple C/C++ TBAA"}
